; Function Attrs: mustprogress nofree nounwind memory(readwrite, inaccessiblemem: none) uwtable
define void @_Z8strncatzPcPKcm(ptr nocapture noundef %0, ptr nocapture noundef readonly %1, i64 noundef %2) local_unnamed_addr #10 {
  %4 = tail call i64 @strlen(ptr noundef nonnull dereferenceable(1) %0) #17
  %5 = icmp ult i64 %4, %2
  br i1 %5, label %.preheader.i, label %_Z8strncpyzPcPKcm.exit

.preheader.i:                                     ; preds = %3
  %6 = getelementptr inbounds i8, ptr %0, i64 %4
  %7 = xor i64 %4, -1
  %8 = add i64 %7, %2
  %.not911.i = icmp eq i64 %8, 0
  br i1 %.not911.i, label %.critedge.i, label %.lr.ph.i

.lr.ph.i:                                         ; preds = %.preheader.i, %11
  %9 = phi i64 [ %14, %11 ], [ %8, %.preheader.i ]
  %.0513.i = phi ptr [ %12, %11 ], [ %1, %.preheader.i ]
  %.0612.i = phi ptr [ %13, %11 ], [ %6, %.preheader.i ]
  %10 = load i8, ptr %.0513.i, align 1
  %.not10.i = icmp eq i8 %10, 0
  br i1 %.not10.i, label %.critedge.i, label %11

11:                                               ; preds = %.lr.ph.i
  %12 = getelementptr inbounds i8, ptr %.0513.i, i64 1
  %13 = getelementptr inbounds i8, ptr %.0612.i, i64 1
  store i8 %10, ptr %.0612.i, align 1
  %14 = add i64 %9, -1
  %.not9.i = icmp eq i64 %14, 0
  br i1 %.not9.i, label %.critedge.i, label %.lr.ph.i, !llvm.loop !4

.critedge.i:                                      ; preds = %11, %.lr.ph.i, %.preheader.i
  %.06.lcssa.i = phi ptr [ %6, %.preheader.i ], [ %.0612.i, %.lr.ph.i ], [ %13, %11 ]
  store i8 0, ptr %.06.lcssa.i, align 1
  br label %_Z8strncpyzPcPKcm.exit

_Z8strncpyzPcPKcm.exit:                           ; preds = %.critedge.i, %3
  ret void
}